target datalayout = "e-m:e-p270:32:32-p271:32:32-p272:64:64-i64:64-i128:128-f80:128-n8:16:32:64-S128"
target triple = "x86_64-pc-linux-gnu"

%union.pthread_mutex_t = type { %struct.__pthread_mutex_s }
%struct.__pthread_mutex_s = type { i32, i32, i32, i32, i32, i16, i16, %struct.__pthread_internal_list }
%struct.__pthread_internal_list = type { ptr, ptr }

@sackd_lock = internal global %union.pthread_mutex_t zeroinitializer, align 8
@.str = private unnamed_addr constant [29 x i8] c"%s: pthread_mutex_lock(): %m\00", align 1
@__func__.sackd_mgr_dump_state = private unnamed_addr constant [21 x i8] c"sackd_mgr_dump_state\00", align 1
@sackd_nodes = internal global ptr null, align 8
@.str.1 = private unnamed_addr constant [28 x i8] c"%s: saved state of %d nodes\00", align 1
@.str.2 = private unnamed_addr constant [31 x i8] c"%s: pthread_mutex_unlock(): %m\00", align 1

; Function Attrs: nounwind uwtable
define dso_local void @sackd_mgr_dump_state(ptr noundef %0, i16 noundef zeroext %1) #0 {
  %3 = alloca ptr, align 8
  %4 = alloca i16, align 2
  %5 = alloca i32, align 4
  %6 = alloca i32, align 4
  store ptr %0, ptr %3, align 8
  store i16 %1, ptr %4, align 2
  br label %7

7:                                                ; preds = %2
  call void @llvm.lifetime.start.p0(i64 4, ptr %5) #7
  %8 = call i32 @pthread_mutex_lock(ptr noundef @sackd_lock) #7
  store i32 %8, ptr %5, align 4
  %9 = load i32, ptr %5, align 4
  %10 = icmp ne i32 %9, 0
  br i1 %10, label %11, label %14

11:                                               ; preds = %7
  %12 = load i32, ptr %5, align 4
  %13 = call ptr @__errno_location() #8
  store i32 %12, ptr %13, align 4
  call void (ptr, ...) @fatal_abort(ptr noundef @.str, ptr noundef @__func__.sackd_mgr_dump_state) #9
  unreachable

14:                                               ; preds = %7
  call void @llvm.lifetime.end.p0(i64 4, ptr %5) #7
  br label %15

15:                                               ; preds = %14
  %16 = load ptr, ptr @sackd_nodes, align 8
  %17 = load ptr, ptr %3, align 8
  %18 = call i32 @slurm_pack_list(ptr noundef %16, ptr noundef @_pack_node, ptr noundef %17, i16 noundef zeroext 11008)
  br label %19

19:                                               ; preds = %15
  br label %20

20:                                               ; preds = %19
  %21 = call i32 @get_log_level()
  %22 = icmp sge i32 %21, 5
  br i1 %22, label %23, label %26

23:                                               ; preds = %20
  %24 = load ptr, ptr @sackd_nodes, align 8
  %25 = call i32 @list_count(ptr noundef %24)
  call void (i32, ptr, ...) @log_var(i32 noundef 5, ptr noundef @.str.1, ptr noundef @__func__.sackd_mgr_dump_state, i32 noundef %25)
  br label %26

26:                                               ; preds = %23, %20
  br label %27

27:                                               ; preds = %26
  br label %28

28:                                               ; preds = %27
  br label %29

29:                                               ; preds = %28
  call void @llvm.lifetime.start.p0(i64 4, ptr %6) #7
  %30 = call i32 @pthread_mutex_unlock(ptr noundef @sackd_lock) #7
  store i32 %30, ptr %6, align 4
  %31 = load i32, ptr %6, align 4
  %32 = icmp ne i32 %31, 0
  br i1 %32, label %33, label %36

33:                                               ; preds = %29
  %34 = load i32, ptr %6, align 4
  %35 = call ptr @__errno_location() #8
  store i32 %34, ptr %35, align 4
  call void (ptr, ...) @fatal_abort(ptr noundef @.str.2, ptr noundef @__func__.sackd_mgr_dump_state) #9
  unreachable

36:                                               ; preds = %29
  call void @llvm.lifetime.end.p0(i64 4, ptr %6) #7
  br label %37

37:                                               ; preds = %36
  ret void
}