; Function Attrs: nounwind uwtable
define dso_local void @sackd_mgr_dump_state(ptr noundef %0, i16 noundef zeroext %1) local_unnamed_addr #0 {
  %3 = tail call i32 @pthread_mutex_lock(ptr noundef nonnull @sackd_lock) #7
  %.not = icmp eq i32 %3, 0
  br i1 %.not, label %6, label %4

4:                                                ; preds = %2
  %5 = tail call ptr @__errno_location() #8
  store i32 %3, ptr %5, align 4
  tail call void (ptr, ...) @fatal_abort(ptr noundef nonnull @.str, ptr noundef nonnull @__func__.sackd_mgr_dump_state) #9
  unreachable

6:                                                ; preds = %2
  %7 = load ptr, ptr @sackd_nodes, align 8
  %8 = tail call i32 @slurm_pack_list(ptr noundef %7, ptr noundef nonnull @_pack_node, ptr noundef %0, i16 noundef zeroext 11008) #7
  %9 = tail call i32 @get_log_level() #7
  %10 = icmp sgt i32 %9, 4
  br i1 %10, label %11, label %14

11:                                               ; preds = %6
  %12 = load ptr, ptr @sackd_nodes, align 8
  %13 = tail call i32 @list_count(ptr noundef %12) #7
  tail call void (i32, ptr, ...) @log_var(i32 noundef 5, ptr noundef nonnull @.str.1, ptr noundef nonnull @__func__.sackd_mgr_dump_state, i32 noundef %13) #7
  br label %14

14:                                               ; preds = %6, %11
  %15 = tail call i32 @pthread_mutex_unlock(ptr noundef nonnull @sackd_lock) #7
  %.not5 = icmp eq i32 %15, 0
  br i1 %.not5, label %18, label %16

16:                                               ; preds = %14
  %17 = tail call ptr @__errno_location() #8
  store i32 %15, ptr %17, align 4
  tail call void (ptr, ...) @fatal_abort(ptr noundef nonnull @.str.2, ptr noundef nonnull @__func__.sackd_mgr_dump_state) #9
  unreachable

18:                                               ; preds = %14
  ret void
}